target datalayout = "e-m:e-p270:32:32-p271:32:32-p272:64:64-i64:64-i128:128-f80:128-n8:16:32:64-S128"
target triple = "x86_64-pc-linux-gnu"

@.str.19 = private unnamed_addr constant [2 x i8] c"\0A\00", align 1
@.str.20 = private unnamed_addr constant [40 x i8] c"    write_verilog [options] [filename]\0A\00", align 1
@.str.21 = private unnamed_addr constant [45 x i8] c"Write the current design to a Verilog file.\0A\00", align 1
@.str.22 = private unnamed_addr constant [9 x i8] c"    -sv\0A\00", align 1
@.str.23 = private unnamed_addr constant [78 x i8] c"        with this option, SystemVerilog constructs like always_comb are used\0A\00", align 1
@.str.24 = private unnamed_addr constant [15 x i8] c"    -norename\0A\00", align 1
@.str.25 = private unnamed_addr constant [79 x i8] c"        without this option all internal object names (the ones with a dollar\0A\00", align 1
@.str.26 = private unnamed_addr constant [74 x i8] c"        instead of a backslash prefix) are changed to short names in the\0A\00", align 1
@.str.27 = private unnamed_addr constant [30 x i8] c"        format '_<number>_'.\0A\00", align 1
@.str.28 = private unnamed_addr constant [28 x i8] c"    -renameprefix <prefix>\0A\00", align 1
@.str.29 = private unnamed_addr constant [70 x i8] c"        insert this prefix in front of auto-generated instance names\0A\00", align 1
@.str.30 = private unnamed_addr constant [13 x i8] c"    -noattr\0A\00", align 1
@.str.31 = private unnamed_addr constant [67 x i8] c"        with this option no attributes are included in the output\0A\00", align 1
@.str.32 = private unnamed_addr constant [19 x i8] c"    -attr2comment\0A\00", align 1
@.str.33 = private unnamed_addr constant [76 x i8] c"        with this option attributes are included as comments in the output\0A\00", align 1
@.str.34 = private unnamed_addr constant [13 x i8] c"    -noexpr\0A\00", align 1
@.str.35 = private unnamed_addr constant [73 x i8] c"        without this option all internal cells are converted to Verilog\0A\00", align 1
@.str.36 = private unnamed_addr constant [22 x i8] c"        expressions.\0A\00", align 1
@.str.37 = private unnamed_addr constant [21 x i8] c"    -noparallelcase\0A\00", align 1
@.str.38 = private unnamed_addr constant [80 x i8] c"        With this option no parallel_case attributes are used. Instead, a case\0A\00", align 1
@.str.39 = private unnamed_addr constant [80 x i8] c"        statement that assigns don't-care values for priority dependent inputs\0A\00", align 1
@.str.40 = private unnamed_addr constant [23 x i8] c"        is generated.\0A\00", align 1
@.str.41 = private unnamed_addr constant [14 x i8] c"    -siminit\0A\00", align 1
@.str.42 = private unnamed_addr constant [78 x i8] c"        add initial statements with hierarchical refs to initialize FFs when\0A\00", align 1
@.str.43 = private unnamed_addr constant [26 x i8] c"        in -noexpr mode.\0A\00", align 1
@.str.44 = private unnamed_addr constant [12 x i8] c"    -nodec\0A\00", align 1
@.str.45 = private unnamed_addr constant [74 x i8] c"        32-bit constant values are by default dumped as decimal numbers,\0A\00", align 1
@.str.46 = private unnamed_addr constant [75 x i8] c"        not bit pattern. This option deactivates this feature and instead\0A\00", align 1
@.str.47 = private unnamed_addr constant [49 x i8] c"        will write out all constants in binary.\0A\00", align 1
@.str.48 = private unnamed_addr constant [14 x i8] c"    -decimal\0A\00", align 1
@.str.49 = private unnamed_addr constant [69 x i8] c"        dump 32-bit constants in decimal and without size and radix\0A\00", align 1
@.str.50 = private unnamed_addr constant [12 x i8] c"    -nohex\0A\00", align 1
@.str.51 = private unnamed_addr constant [73 x i8] c"        constant values that are compatible with hex output are usually\0A\00", align 1
@.str.52 = private unnamed_addr constant [72 x i8] c"        dumped as hex values. This option deactivates this feature and\0A\00", align 1
@.str.53 = private unnamed_addr constant [57 x i8] c"        instead will write out all constants in binary.\0A\00", align 1
@.str.54 = private unnamed_addr constant [12 x i8] c"    -nostr\0A\00", align 1
@.str.55 = private unnamed_addr constant [72 x i8] c"        Parameters and attributes that are specified as strings in the\0A\00", align 1
@.str.56 = private unnamed_addr constant [73 x i8] c"        original input will be output as strings by this back-end. This\0A\00", align 1
@.str.57 = private unnamed_addr constant [74 x i8] c"        deactivates this feature and instead will write string constants\0A\00", align 1
@.str.58 = private unnamed_addr constant [28 x i8] c"        as binary numbers.\0A\00", align 1
@.str.59 = private unnamed_addr constant [17 x i8] c"    -simple-lhs\0A\00", align 1
@.str.60 = private unnamed_addr constant [67 x i8] c"        Connection assignments with simple left hand side without\0A\00", align 1
@.str.61 = private unnamed_addr constant [25 x i8] c"        concatenations.\0A\00", align 1
@.str.62 = private unnamed_addr constant [13 x i8] c"    -extmem\0A\00", align 1
@.str.63 = private unnamed_addr constant [74 x i8] c"        instead of initializing memories using assignments to individual\0A\00", align 1
@.str.64 = private unnamed_addr constant [76 x i8] c"        elements, use the '$readmemh' function to read initialization data\0A\00", align 1
@.str.65 = private unnamed_addr constant [72 x i8] c"        from a file. This data is written to a file named by appending\0A\00", align 1
@.str.66 = private unnamed_addr constant [80 x i8] c"        a sequential index to the Verilog filename and replacing the extension\0A\00", align 1
@.str.67 = private unnamed_addr constant [77 x i8] c"        with '.mem', e.g. 'write_verilog -extmem foo.v' writes 'foo-1.mem',\0A\00", align 1
@.str.68 = private unnamed_addr constant [32 x i8] c"        'foo-2.mem' and so on.\0A\00", align 1
@.str.69 = private unnamed_addr constant [15 x i8] c"    -defparam\0A\00", align 1
@.str.70 = private unnamed_addr constant [74 x i8] c"        use 'defparam' statements instead of the Verilog-2001 syntax for\0A\00", align 1
@.str.71 = private unnamed_addr constant [26 x i8] c"        cell parameters.\0A\00", align 1
@.str.72 = private unnamed_addr constant [17 x i8] c"    -blackboxes\0A\00", align 1
@.str.73 = private unnamed_addr constant [73 x i8] c"        usually modules with the 'blackbox' attribute are ignored. with\0A\00", align 1
@.str.74 = private unnamed_addr constant [72 x i8] c"        this option set only the modules with the 'blackbox' attribute\0A\00", align 1
@.str.75 = private unnamed_addr constant [41 x i8] c"        are written to the output file.\0A\00", align 1
@.str.76 = private unnamed_addr constant [15 x i8] c"    -selected\0A\00", align 1
@.str.77 = private unnamed_addr constant [75 x i8] c"        only write selected modules. modules must be selected entirely or\0A\00", align 1
@.str.78 = private unnamed_addr constant [21 x i8] c"        not at all.\0A\00", align 1
@.str.79 = private unnamed_addr constant [8 x i8] c"    -v\0A\00", align 1
@.str.80 = private unnamed_addr constant [73 x i8] c"        verbose output (print new names of all renamed wires and cells)\0A\00", align 1
@.str.81 = private unnamed_addr constant [70 x i8] c"Note that RTLIL processes can't always be mapped directly to Verilog\0A\00", align 1
@.str.82 = private unnamed_addr constant [69 x i8] c"always blocks. This frontend should only be used to export an RTLIL\0A\00", align 1
@.str.83 = private unnamed_addr constant [66 x i8] c"netlist, i.e. after the \22proc\22 pass has been used to convert all\0A\00", align 1
@.str.84 = private unnamed_addr constant [72 x i8] c"processes to logic networks and registers. A warning is generated when\0A\00", align 1
@.str.85 = private unnamed_addr constant [58 x i8] c"this command is called on a design with RTLIL processes.\0A\00", align 1

; Function Attrs: mustprogress uwtable
define internal void @_ZN12_GLOBAL__N_114VerilogBackend4helpEv(ptr noundef nonnull align 8 dereferenceable(136) %0) unnamed_addr #6 align 2 {
  %2 = alloca ptr, align 8
  store ptr %0, ptr %2, align 8, !tbaa !26
  call void (ptr, ...) @_ZN5Yosys3logEPKcz(ptr noundef @.str.19)
  call void (ptr, ...) @_ZN5Yosys3logEPKcz(ptr noundef @.str.20)
  call void (ptr, ...) @_ZN5Yosys3logEPKcz(ptr noundef @.str.19)
  call void (ptr, ...) @_ZN5Yosys3logEPKcz(ptr noundef @.str.21)
  call void (ptr, ...) @_ZN5Yosys3logEPKcz(ptr noundef @.str.19)
  call void (ptr, ...) @_ZN5Yosys3logEPKcz(ptr noundef @.str.22)
  call void (ptr, ...) @_ZN5Yosys3logEPKcz(ptr noundef @.str.23)
  call void (ptr, ...) @_ZN5Yosys3logEPKcz(ptr noundef @.str.19)
  call void (ptr, ...) @_ZN5Yosys3logEPKcz(ptr noundef @.str.24)
  call void (ptr, ...) @_ZN5Yosys3logEPKcz(ptr noundef @.str.25)
  call void (ptr, ...) @_ZN5Yosys3logEPKcz(ptr noundef @.str.26)
  call void (ptr, ...) @_ZN5Yosys3logEPKcz(ptr noundef @.str.27)
  call void (ptr, ...) @_ZN5Yosys3logEPKcz(ptr noundef @.str.19)
  call void (ptr, ...) @_ZN5Yosys3logEPKcz(ptr noundef @.str.28)
  call void (ptr, ...) @_ZN5Yosys3logEPKcz(ptr noundef @.str.29)
  call void (ptr, ...) @_ZN5Yosys3logEPKcz(ptr noundef @.str.19)
  call void (ptr, ...) @_ZN5Yosys3logEPKcz(ptr noundef @.str.30)
  call void (ptr, ...) @_ZN5Yosys3logEPKcz(ptr noundef @.str.31)
  call void (ptr, ...) @_ZN5Yosys3logEPKcz(ptr noundef @.str.19)
  call void (ptr, ...) @_ZN5Yosys3logEPKcz(ptr noundef @.str.32)
  call void (ptr, ...) @_ZN5Yosys3logEPKcz(ptr noundef @.str.33)
  call void (ptr, ...) @_ZN5Yosys3logEPKcz(ptr noundef @.str.19)
  call void (ptr, ...) @_ZN5Yosys3logEPKcz(ptr noundef @.str.34)
  call void (ptr, ...) @_ZN5Yosys3logEPKcz(ptr noundef @.str.35)
  call void (ptr, ...) @_ZN5Yosys3logEPKcz(ptr noundef @.str.36)
  call void (ptr, ...) @_ZN5Yosys3logEPKcz(ptr noundef @.str.19)
  call void (ptr, ...) @_ZN5Yosys3logEPKcz(ptr noundef @.str.37)
  call void (ptr, ...) @_ZN5Yosys3logEPKcz(ptr noundef @.str.38)
  call void (ptr, ...) @_ZN5Yosys3logEPKcz(ptr noundef @.str.39)
  call void (ptr, ...) @_ZN5Yosys3logEPKcz(ptr noundef @.str.40)
  call void (ptr, ...) @_ZN5Yosys3logEPKcz(ptr noundef @.str.19)
  call void (ptr, ...) @_ZN5Yosys3logEPKcz(ptr noundef @.str.41)
  call void (ptr, ...) @_ZN5Yosys3logEPKcz(ptr noundef @.str.42)
  call void (ptr, ...) @_ZN5Yosys3logEPKcz(ptr noundef @.str.43)
  call void (ptr, ...) @_ZN5Yosys3logEPKcz(ptr noundef @.str.19)
  call void (ptr, ...) @_ZN5Yosys3logEPKcz(ptr noundef @.str.44)
  call void (ptr, ...) @_ZN5Yosys3logEPKcz(ptr noundef @.str.45)
  call void (ptr, ...) @_ZN5Yosys3logEPKcz(ptr noundef @.str.46)
  call void (ptr, ...) @_ZN5Yosys3logEPKcz(ptr noundef @.str.47)
  call void (ptr, ...) @_ZN5Yosys3logEPKcz(ptr noundef @.str.19)
  call void (ptr, ...) @_ZN5Yosys3logEPKcz(ptr noundef @.str.48)
  call void (ptr, ...) @_ZN5Yosys3logEPKcz(ptr noundef @.str.49)
  call void (ptr, ...) @_ZN5Yosys3logEPKcz(ptr noundef @.str.19)
  call void (ptr, ...) @_ZN5Yosys3logEPKcz(ptr noundef @.str.50)
  call void (ptr, ...) @_ZN5Yosys3logEPKcz(ptr noundef @.str.51)
  call void (ptr, ...) @_ZN5Yosys3logEPKcz(ptr noundef @.str.52)
  call void (ptr, ...) @_ZN5Yosys3logEPKcz(ptr noundef @.str.53)
  call void (ptr, ...) @_ZN5Yosys3logEPKcz(ptr noundef @.str.19)
  call void (ptr, ...) @_ZN5Yosys3logEPKcz(ptr noundef @.str.54)
  call void (ptr, ...) @_ZN5Yosys3logEPKcz(ptr noundef @.str.55)
  call void (ptr, ...) @_ZN5Yosys3logEPKcz(ptr noundef @.str.56)
  call void (ptr, ...) @_ZN5Yosys3logEPKcz(ptr noundef @.str.57)
  call void (ptr, ...) @_ZN5Yosys3logEPKcz(ptr noundef @.str.58)
  call void (ptr, ...) @_ZN5Yosys3logEPKcz(ptr noundef @.str.19)
  call void (ptr, ...) @_ZN5Yosys3logEPKcz(ptr noundef @.str.59)
  call void (ptr, ...) @_ZN5Yosys3logEPKcz(ptr noundef @.str.60)
  call void (ptr, ...) @_ZN5Yosys3logEPKcz(ptr noundef @.str.61)
  call void (ptr, ...) @_ZN5Yosys3logEPKcz(ptr noundef @.str.19)
  call void (ptr, ...) @_ZN5Yosys3logEPKcz(ptr noundef @.str.62)
  call void (ptr, ...) @_ZN5Yosys3logEPKcz(ptr noundef @.str.63)
  call void (ptr, ...) @_ZN5Yosys3logEPKcz(ptr noundef @.str.64)
  call void (ptr, ...) @_ZN5Yosys3logEPKcz(ptr noundef @.str.65)
  call void (ptr, ...) @_ZN5Yosys3logEPKcz(ptr noundef @.str.66)
  call void (ptr, ...) @_ZN5Yosys3logEPKcz(ptr noundef @.str.67)
  call void (ptr, ...) @_ZN5Yosys3logEPKcz(ptr noundef @.str.68)
  call void (ptr, ...) @_ZN5Yosys3logEPKcz(ptr noundef @.str.19)
  call void (ptr, ...) @_ZN5Yosys3logEPKcz(ptr noundef @.str.69)
  call void (ptr, ...) @_ZN5Yosys3logEPKcz(ptr noundef @.str.70)
  call void (ptr, ...) @_ZN5Yosys3logEPKcz(ptr noundef @.str.71)
  call void (ptr, ...) @_ZN5Yosys3logEPKcz(ptr noundef @.str.19)
  call void (ptr, ...) @_ZN5Yosys3logEPKcz(ptr noundef @.str.72)
  call void (ptr, ...) @_ZN5Yosys3logEPKcz(ptr noundef @.str.73)
  call void (ptr, ...) @_ZN5Yosys3logEPKcz(ptr noundef @.str.74)
  call void (ptr, ...) @_ZN5Yosys3logEPKcz(ptr noundef @.str.75)
  call void (ptr, ...) @_ZN5Yosys3logEPKcz(ptr noundef @.str.19)
  call void (ptr, ...) @_ZN5Yosys3logEPKcz(ptr noundef @.str.76)
  call void (ptr, ...) @_ZN5Yosys3logEPKcz(ptr noundef @.str.77)
  call void (ptr, ...) @_ZN5Yosys3logEPKcz(ptr noundef @.str.78)
  call void (ptr, ...) @_ZN5Yosys3logEPKcz(ptr noundef @.str.19)
  call void (ptr, ...) @_ZN5Yosys3logEPKcz(ptr noundef @.str.79)
  call void (ptr, ...) @_ZN5Yosys3logEPKcz(ptr noundef @.str.80)
  call void (ptr, ...) @_ZN5Yosys3logEPKcz(ptr noundef @.str.19)
  call void (ptr, ...) @_ZN5Yosys3logEPKcz(ptr noundef @.str.81)
  call void (ptr, ...) @_ZN5Yosys3logEPKcz(ptr noundef @.str.82)
  call void (ptr, ...) @_ZN5Yosys3logEPKcz(ptr noundef @.str.83)
  call void (ptr, ...) @_ZN5Yosys3logEPKcz(ptr noundef @.str.84)
  call void (ptr, ...) @_ZN5Yosys3logEPKcz(ptr noundef @.str.85)
  call void (ptr, ...) @_ZN5Yosys3logEPKcz(ptr noundef @.str.19)
  ret void
}